; Function Attrs: mustprogress nofree norecurse nosync nounwind willreturn memory(read, inaccessiblemem: none) uwtable
define hidden noundef range(i32 -1, 2) i32 @_ZN2cv6detail8tracking15online_boosting25WeakClassifierHaarFeature4evalEf(ptr noundef nonnull readonly align 8 captures(none) dereferenceable(24) %0, float noundef %1) local_unnamed_addr #12 align 2 {
  %3 = getelementptr inbounds nuw i8, ptr %0, i64 16
  %4 = load ptr, ptr %3, align 8, !tbaa !83
  %5 = getelementptr inbounds nuw i8, ptr %4, i64 28
  %6 = load i32, ptr %5, align 4, !tbaa !86
  %7 = sitofp i32 %6 to float
  %8 = getelementptr inbounds nuw i8, ptr %4, i64 24
  %9 = load float, ptr %8, align 8, !tbaa !89
  %10 = fsub float %1, %9
  %11 = fmul float %10, %7
  %12 = fcmp ogt float %11, 0.000000e+00
  %13 = select i1 %12, i32 1, i32 -1
  ret i32 %13
}